; Function Attrs: nounwind uwtable
define void @validateGPUExists(i32 noundef %0, ptr noundef %1) local_unnamed_addr #3 {
  %.not.i = icmp eq i32 %0, 0
  br i1 %.not.i, label %3, label %QuESTAssert.exit

3:                                                ; preds = %2
  tail call void @invalidQuESTInputError(ptr noundef nonnull @.str.91, ptr noundef %1)
  br label %QuESTAssert.exit

QuESTAssert.exit:                                 ; preds = %2, %3
  ret void
}